; Function Attrs: null_pointer_is_valid sspstrong uwtable
define internal i32 @dissect_rtse_T_userDataRJ(i1 zeroext %0, ptr noundef %1, i32 noundef %2, ptr noundef readonly captures(none) %3, ptr noundef %4, i32 %5) #0 {
  %7 = getelementptr inbounds nuw i8, ptr %3, i64 48
  %8 = load ptr, ptr %7, align 8
  %9 = load i32, ptr @app_proto, align 4
  switch i32 %9, label %11 [
    i32 1, label %20
    i32 12, label %10
  ]

10:                                               ; preds = %6
  br label %20

11:                                               ; preds = %6
  %.not = icmp eq ptr %8, null
  br i1 %.not, label %.split, label %12

12:                                               ; preds = %11
  %13 = getelementptr inbounds nuw i8, ptr %8, i64 2
  %14 = load i8, ptr %13, align 2
  %.not20 = icmp eq i8 %14, 0
  br i1 %.not20, label %.thread, label %15

15:                                               ; preds = %12
  %16 = zext i8 %14 to i32
  %17 = getelementptr inbounds nuw i8, ptr %3, i64 16
  %18 = load ptr, ptr %17, align 8
  %19 = tail call ptr @find_oid_by_pres_ctx_id(ptr noundef %18, i32 noundef %16)
  br label %.thread

.thread:                                          ; preds = %12, %15
  %.0.ph = phi ptr [ null, %12 ], [ %19, %15 ]
  %.not2126 = icmp eq ptr %.0.ph, null
  %spec.store.select27 = select i1 %.not2126, ptr @.str.103, ptr %.0.ph
  br label %.split17

20:                                               ; preds = %6, %10
  %.0 = phi ptr [ @.str.103, %10 ], [ @.str.102, %6 ]
  %.not22 = icmp eq ptr %8, null
  br i1 %.not22, label %.split, label %.split17

.split:                                           ; preds = %11, %20
  %spec.store.select35 = phi ptr [ %.0, %20 ], [ @.str.103, %11 ]
  %21 = getelementptr inbounds nuw i8, ptr %3, i64 16
  %22 = load ptr, ptr %21, align 8
  %23 = load ptr, ptr @top_tree, align 8
  %.not23 = icmp eq ptr %23, null
  %24 = select i1 %.not23, ptr %4, ptr %23
  %25 = tail call fastcc i32 @call_rtse_oid_callback(ptr noundef nonnull %spec.store.select35, ptr noundef %1, i32 noundef %2, ptr noundef %22, ptr noundef %24, ptr noundef null)
  br label %32

.split17:                                         ; preds = %.thread, %20
  %spec.store.select29 = phi ptr [ %spec.store.select27, %.thread ], [ %.0, %20 ]
  %26 = getelementptr inbounds nuw i8, ptr %8, i64 4
  store i32 822083584, ptr %26, align 4
  %27 = getelementptr inbounds nuw i8, ptr %3, i64 16
  %28 = load ptr, ptr %27, align 8
  %29 = load ptr, ptr @top_tree, align 8
  %.not24 = icmp eq ptr %29, null
  %30 = select i1 %.not24, ptr %4, ptr %29
  %31 = tail call fastcc i32 @call_rtse_oid_callback(ptr noundef nonnull %spec.store.select29, ptr noundef %1, i32 noundef %2, ptr noundef %28, ptr noundef %30, ptr noundef nonnull %8)
  br label %32

32:                                               ; preds = %.split17, %.split
  %phi.call = phi i32 [ %25, %.split ], [ %31, %.split17 ]
  ret i32 %phi.call
}